; Function Attrs: mustprogress uwtable
define void @_ZN7rocksdb12BlockBuilder12SwapAndResetERNSt7__cxx1112basic_stringIcSt11char_traitsIcESaIcEEE(ptr noundef nonnull align 8 dereferenceable(176) %0, ptr noundef nonnull align 8 dereferenceable(32) %1) local_unnamed_addr #1 align 2 personality ptr @__gxx_personality_v0 {
  %3 = getelementptr inbounds nuw i8, ptr %0, i64 24
  tail call void @_ZNSt7__cxx1112basic_stringIcSt11char_traitsIcESaIcEE4swapERS4_(ptr noundef nonnull align 8 dereferenceable(32) %3, ptr noundef nonnull align 8 dereferenceable(32) %1) #14
  %4 = getelementptr inbounds nuw i8, ptr %0, i64 32
  store i64 0, ptr %4, align 8, !tbaa !32
  %5 = load ptr, ptr %3, align 8, !tbaa !44
  store i8 0, ptr %5, align 1, !tbaa !33
  %6 = getelementptr inbounds nuw i8, ptr %0, i64 56
  %7 = getelementptr inbounds nuw i8, ptr %0, i64 64
  %8 = load ptr, ptr %7, align 8, !tbaa !37
  %9 = load ptr, ptr %6, align 8, !tbaa !34
  %10 = ptrtoint ptr %8 to i64
  %11 = ptrtoint ptr %9 to i64
  %12 = sub i64 %10, %11
  %13 = ashr exact i64 %12, 2
  %14 = icmp eq ptr %8, %9
  br i1 %14, label %15, label %17

15:                                               ; preds = %2
  %16 = sub nuw nsw i64 1, %13
  tail call void @_ZNSt6vectorIjSaIjEE17_M_default_appendEm(ptr noundef nonnull align 8 dereferenceable(24) %6, i64 noundef %16)
  br label %_ZNSt6vectorIjSaIjEE6resizeEm.exit.i

17:                                               ; preds = %2
  %18 = icmp ugt i64 %13, 1
  br i1 %18, label %19, label %_ZNSt6vectorIjSaIjEE6resizeEm.exit.i

19:                                               ; preds = %17
  %20 = getelementptr inbounds nuw i8, ptr %9, i64 4
  %.not.i.i.i = icmp eq ptr %8, %20
  br i1 %.not.i.i.i, label %_ZNSt6vectorIjSaIjEE6resizeEm.exit.i, label %21

21:                                               ; preds = %19
  store ptr %20, ptr %7, align 8, !tbaa !37
  br label %_ZNSt6vectorIjSaIjEE6resizeEm.exit.i

_ZNSt6vectorIjSaIjEE6resizeEm.exit.i:             ; preds = %21, %19, %17, %15
  %22 = getelementptr inbounds nuw i8, ptr %0, i64 80
  store i64 8, ptr %22, align 8, !tbaa !43
  %23 = getelementptr inbounds nuw i8, ptr %0, i64 88
  store i32 0, ptr %23, align 8, !tbaa !38
  %24 = getelementptr inbounds nuw i8, ptr %0, i64 92
  store i8 0, ptr %24, align 4, !tbaa !39
  %25 = getelementptr inbounds nuw i8, ptr %0, i64 96
  %26 = getelementptr inbounds nuw i8, ptr %0, i64 104
  store i64 0, ptr %26, align 8, !tbaa !32
  %27 = load ptr, ptr %25, align 8, !tbaa !44
  store i8 0, ptr %27, align 1, !tbaa !33
  %28 = getelementptr inbounds nuw i8, ptr %0, i64 128
  %29 = getelementptr inbounds nuw i8, ptr %0, i64 144
  %30 = load i8, ptr %29, align 8, !tbaa !42, !range !45, !noundef !46
  %31 = trunc nuw i8 %30 to i1
  %32 = load double, ptr %28, align 8
  %33 = fcmp ogt double %32, 0.000000e+00
  %34 = select i1 %31, i1 %33, i1 false
  br i1 %34, label %35, label %_ZN7rocksdb12BlockBuilder5ResetEv.exit

35:                                               ; preds = %_ZNSt6vectorIjSaIjEE6resizeEm.exit.i
  tail call void @_ZN7rocksdb25DataBlockHashIndexBuilder5ResetEv(ptr noundef nonnull align 8 dereferenceable(48) %28)
  br label %_ZN7rocksdb12BlockBuilder5ResetEv.exit

_ZN7rocksdb12BlockBuilder5ResetEv.exit:           ; preds = %_ZNSt6vectorIjSaIjEE6resizeEm.exit.i, %35
  ret void
}